target datalayout = "e-m:e-p270:32:32-p271:32:32-p272:64:64-i64:64-i128:128-f80:128-n8:16:32:64-S128"
target triple = "x86_64-pc-linux-gnu"

%struct.mz_zip_archive_tag = type { i64, i64, i32, i32, i32, ptr, ptr, ptr, ptr, ptr, ptr, ptr, ptr }

; Function Attrs: mustprogress uwtable
define internal noundef i32 @_ZL25mz_zip_writer_write_zerosP18mz_zip_archive_tagyj(ptr noundef %0, i64 noundef %1, i32 noundef %2) #5 {
  %4 = alloca i32, align 4
  %5 = alloca ptr, align 8
  %6 = alloca i64, align 8
  %7 = alloca i32, align 4
  %8 = alloca [4096 x i8], align 16
  %9 = alloca i32, align 4
  store ptr %0, ptr %5, align 8
  store i64 %1, ptr %6, align 8
  store i32 %2, ptr %7, align 4
  %10 = getelementptr inbounds [4096 x i8], ptr %8, i64 0, i64 0
  %11 = load i32, ptr %7, align 4
  %12 = zext i32 %11 to i64
  %13 = icmp ult i64 4096, %12
  br i1 %13, label %14, label %15

14:                                               ; preds = %3
  br label %18

15:                                               ; preds = %3
  %16 = load i32, ptr %7, align 4
  %17 = zext i32 %16 to i64
  br label %18

18:                                               ; preds = %15, %14
  %19 = phi i64 [ 4096, %14 ], [ %17, %15 ]
  call void @llvm.memset.p0.i64(ptr align 16 %10, i8 0, i64 %19, i1 false)
  br label %20

20:                                               ; preds = %49, %18
  %21 = load i32, ptr %7, align 4
  %22 = icmp ne i32 %21, 0
  br i1 %22, label %23, label %57

23:                                               ; preds = %20
  %24 = load i32, ptr %7, align 4
  %25 = zext i32 %24 to i64
  %26 = icmp ult i64 4096, %25
  br i1 %26, label %27, label %28

27:                                               ; preds = %23
  br label %31

28:                                               ; preds = %23
  %29 = load i32, ptr %7, align 4
  %30 = zext i32 %29 to i64
  br label %31

31:                                               ; preds = %28, %27
  %32 = phi i64 [ 4096, %27 ], [ %30, %28 ]
  %33 = trunc i64 %32 to i32
  store i32 %33, ptr %9, align 4
  %34 = load ptr, ptr %5, align 8
  %35 = getelementptr inbounds %struct.mz_zip_archive_tag, ptr %34, i32 0, i32 10
  %36 = load ptr, ptr %35, align 8
  %37 = load ptr, ptr %5, align 8
  %38 = getelementptr inbounds %struct.mz_zip_archive_tag, ptr %37, i32 0, i32 11
  %39 = load ptr, ptr %38, align 8
  %40 = load i64, ptr %6, align 8
  %41 = getelementptr inbounds [4096 x i8], ptr %8, i64 0, i64 0
  %42 = load i32, ptr %9, align 4
  %43 = zext i32 %42 to i64
  %44 = call noundef i64 %36(ptr noundef %39, i64 noundef %40, ptr noundef %41, i64 noundef %43)
  %45 = load i32, ptr %9, align 4
  %46 = zext i32 %45 to i64
  %47 = icmp ne i64 %44, %46
  br i1 %47, label %48, label %49

48:                                               ; preds = %31
  store i32 0, ptr %4, align 4
  br label %58

49:                                               ; preds = %31
  %50 = load i32, ptr %9, align 4
  %51 = zext i32 %50 to i64
  %52 = load i64, ptr %6, align 8
  %53 = add i64 %52, %51
  store i64 %53, ptr %6, align 8
  %54 = load i32, ptr %9, align 4
  %55 = load i32, ptr %7, align 4
  %56 = sub i32 %55, %54
  store i32 %56, ptr %7, align 4
  br label %20, !llvm.loop !205

57:                                               ; preds = %20
  store i32 1, ptr %4, align 4
  br label %58

58:                                               ; preds = %57, %48
  %59 = load i32, ptr %4, align 4
  ret i32 %59
}