; Function Attrs: mustprogress uwtable
define internal fastcc noundef i32 @_ZL25mz_zip_writer_write_zerosP18mz_zip_archive_tagyj(ptr nocapture noundef readonly %0, i64 noundef %1, i32 noundef %2) unnamed_addr #9 {
  %4 = alloca [4096 x i8], align 16
  %5 = tail call i32 @llvm.umin.i32(i32 %2, i32 4096)
  %6 = zext nneg i32 %5 to i64
  call void @llvm.memset.p0.i64(ptr nonnull align 16 %4, i8 0, i64 %6, i1 false)
  %.not18 = icmp eq i32 %2, 0
  br i1 %.not18, label %._crit_edge, label %.lr.ph

.lr.ph:                                           ; preds = %3
  %7 = getelementptr inbounds i8, ptr %0, i64 72
  %8 = getelementptr inbounds i8, ptr %0, i64 80
  br label %9

9:                                                ; preds = %.lr.ph, %15
  %.01420 = phi i32 [ %2, %.lr.ph ], [ %17, %15 ]
  %.01519 = phi i64 [ %1, %.lr.ph ], [ %16, %15 ]
  %10 = call i32 @llvm.umin.i32(i32 %.01420, i32 4096)
  %11 = load ptr, ptr %7, align 8
  %12 = load ptr, ptr %8, align 8
  %13 = zext nneg i32 %10 to i64
  %14 = call noundef i64 %11(ptr noundef %12, i64 noundef %.01519, ptr noundef nonnull %4, i64 noundef %13)
  %.not17 = icmp eq i64 %14, %13
  br i1 %.not17, label %15, label %._crit_edge

15:                                               ; preds = %9
  %16 = add i64 %.01519, %13
  %17 = sub i32 %.01420, %10
  %.not = icmp eq i32 %17, 0
  br i1 %.not, label %._crit_edge, label %9, !llvm.loop !204

._crit_edge:                                      ; preds = %9, %15, %3
  %.0 = phi i32 [ 1, %3 ], [ 1, %15 ], [ 0, %9 ]
  ret i32 %.0
}